target datalayout = "e-m:e-p270:32:32-p271:32:32-p272:64:64-i64:64-i128:128-f80:128-n8:16:32:64-S128"
target triple = "x86_64-pc-linux-gnu"

%struct.pmix_object_t = type { %union.pthread_mutex_t, ptr, i32, %struct.pmix_tma }
%union.pthread_mutex_t = type { %struct.__pthread_mutex_s }
%struct.__pthread_mutex_s = type { i32, i32, i32, i32, i32, i16, i16, %struct.__pthread_internal_list }
%struct.__pthread_internal_list = type { ptr, ptr }
%struct.pmix_tma = type { ptr, ptr, ptr, ptr, ptr, ptr, ptr, ptr }
%struct.pmix_list_item_t = type { %struct.pmix_object_t, ptr, ptr, i32 }
%struct.timeval = type { i64, i64 }
%struct.pmix_progress_tracker_t = type { %struct.pmix_list_item_t, i32, ptr, ptr, i8, %struct.event, i8, %struct.pmix_thread_t }
%struct.event = type { %struct.event_callback, %union.anon.0, i32, ptr, %union.anon.2, i16, i16, %struct.timeval }
%struct.event_callback = type { %struct.anon, i16, i8, i8, %union.anon, ptr }
%struct.anon = type { ptr, ptr }
%union.anon = type { ptr }
%union.anon.0 = type { %struct.anon.1 }
%struct.anon.1 = type { ptr, ptr }
%union.anon.2 = type { %struct.anon.3 }
%struct.anon.3 = type { %struct.anon.4, %struct.timeval }
%struct.anon.4 = type { ptr, ptr }
%struct.pmix_thread_t = type { %struct.pmix_object_t, ptr, ptr, i64 }
%struct.cpu_set_t = type { [16 x i64] }

@.str = private unnamed_addr constant [37 x i8] c"PMIX ERROR: %s in file %s at line %d\00", align 1
@.str.1 = private unnamed_addr constant [32 x i8] c"runtime/pmix_progress_threads.c\00", align 1
@pmix_progress_thread_cpus = external global ptr, align 8
@pmix_bind_progress_thread_reqd = external global i8, align 1
@.str.5 = private unnamed_addr constant [34 x i8] c"Failed to bind progress thread %s\00", align 1
@.str.6 = private unnamed_addr constant [5 x i8] c"NULL\00", align 1

; Function Attrs: nounwind uwtable
define internal i32 @start_progress_engine(ptr noundef %0) #0 {
  %2 = alloca i32, align 4
  %3 = alloca ptr, align 8
  %4 = alloca %struct.cpu_set_t, align 8
  %5 = alloca ptr, align 8
  %6 = alloca ptr, align 8
  %7 = alloca i32, align 4
  %8 = alloca i32, align 4
  %9 = alloca i32, align 4
  %10 = alloca i32, align 4
  %11 = alloca i32, align 4
  %12 = alloca i32, align 4
  %13 = alloca i64, align 8
  %14 = alloca i64, align 8
  %15 = alloca i64, align 8
  %16 = alloca i64, align 8
  store ptr %0, ptr %3, align 8, !tbaa !3
  call void @llvm.lifetime.start.p0(i64 128, ptr %4) #12
  call void @llvm.lifetime.start.p0(i64 8, ptr %5) #12
  call void @llvm.lifetime.start.p0(i64 8, ptr %6) #12
  call void @llvm.lifetime.start.p0(i64 4, ptr %7) #12
  call void @llvm.lifetime.start.p0(i64 4, ptr %8) #12
  call void @llvm.lifetime.start.p0(i64 4, ptr %9) #12
  call void @llvm.lifetime.start.p0(i64 4, ptr %10) #12
  %17 = load ptr, ptr %3, align 8, !tbaa !3
  %18 = getelementptr inbounds nuw %struct.pmix_progress_tracker_t, ptr %17, i32 0, i32 4
  store volatile i8 1, ptr %18, align 8, !tbaa !84
  %19 = load ptr, ptr %3, align 8, !tbaa !3
  %20 = getelementptr inbounds nuw %struct.pmix_progress_tracker_t, ptr %19, i32 0, i32 7
  %21 = getelementptr inbounds nuw %struct.pmix_thread_t, ptr %20, i32 0, i32 1
  store ptr @progress_engine, ptr %21, align 8, !tbaa !86
  %22 = load ptr, ptr %3, align 8, !tbaa !3
  %23 = load ptr, ptr %3, align 8, !tbaa !3
  %24 = getelementptr inbounds nuw %struct.pmix_progress_tracker_t, ptr %23, i32 0, i32 7
  %25 = getelementptr inbounds nuw %struct.pmix_thread_t, ptr %24, i32 0, i32 2
  store ptr %22, ptr %25, align 8, !tbaa !87
  call void @llvm.lifetime.start.p0(i64 4, ptr %11) #12
  %26 = load ptr, ptr %3, align 8, !tbaa !3
  %27 = getelementptr inbounds nuw %struct.pmix_progress_tracker_t, ptr %26, i32 0, i32 7
  %28 = call i32 @pmix_thread_start(ptr noundef %27)
  store i32 %28, ptr %11, align 4, !tbaa !31
  %29 = load i32, ptr %11, align 4, !tbaa !31
  %30 = icmp ne i32 0, %29
  br i1 %30, label %31, label %42

31:                                               ; preds = %1
  br label %32

32:                                               ; preds = %31
  %33 = load i32, ptr %11, align 4, !tbaa !31
  %34 = icmp ne i32 -2, %33
  br i1 %34, label %35, label %38

35:                                               ; preds = %32
  %36 = load i32, ptr %11, align 4, !tbaa !31
  %37 = call ptr @PMIx_Error_string(i32 noundef %36)
  call void (i32, ptr, ...) @pmix_output(i32 noundef 0, ptr noundef @.str, ptr noundef %37, ptr noundef @.str.1, i32 noundef 151)
  br label %38

38:                                               ; preds = %35, %32
  br label %39

39:                                               ; preds = %38
  br label %40

40:                                               ; preds = %39
  %41 = load i32, ptr %11, align 4, !tbaa !31
  store i32 %41, ptr %2, align 4
  store i32 1, ptr %12, align 4
  br label %155

42:                                               ; preds = %1
  %43 = load ptr, ptr @pmix_progress_thread_cpus, align 8, !tbaa !27
  %44 = icmp ne ptr null, %43
  br i1 %44, label %45, label %153

45:                                               ; preds = %42
  br label %46

46:                                               ; preds = %45
  call void @llvm.memset.p0.i64(ptr align 8 %4, i8 0, i64 128, i1 false)
  br label %47

47:                                               ; preds = %46
  br label %48

48:                                               ; preds = %47
  %49 = load ptr, ptr @pmix_progress_thread_cpus, align 8, !tbaa !27
  %50 = call ptr @PMIx_Argv_split(ptr noundef %49, i32 noundef 44)
  store ptr %50, ptr %5, align 8, !tbaa !88
  store i32 0, ptr %8, align 4, !tbaa !31
  br label %51

51:                                               ; preds = %124, %48
  %52 = load ptr, ptr %5, align 8, !tbaa !88
  %53 = load i32, ptr %8, align 4, !tbaa !31
  %54 = sext i32 %53 to i64
  %55 = getelementptr inbounds ptr, ptr %52, i64 %54
  %56 = load ptr, ptr %55, align 8, !tbaa !27
  %57 = icmp ne ptr null, %56
  br i1 %57, label %58, label %127

58:                                               ; preds = %51
  %59 = load ptr, ptr %5, align 8, !tbaa !88
  %60 = load i32, ptr %8, align 4, !tbaa !31
  %61 = sext i32 %60 to i64
  %62 = getelementptr inbounds ptr, ptr %59, i64 %61
  %63 = load ptr, ptr %62, align 8, !tbaa !27
  %64 = call i64 @strtoul(ptr noundef %63, ptr noundef %6, i32 noundef 10) #12
  %65 = trunc i64 %64 to i32
  store i32 %65, ptr %9, align 4, !tbaa !31
  %66 = load ptr, ptr %6, align 8, !tbaa !27
  %67 = icmp eq ptr null, %66
  br i1 %67, label %68, label %88

68:                                               ; preds = %58
  call void @llvm.lifetime.start.p0(i64 8, ptr %13) #12
  %69 = load i32, ptr %9, align 4, !tbaa !31
  %70 = sext i32 %69 to i64
  store i64 %70, ptr %13, align 8, !tbaa !90
  %71 = load i64, ptr %13, align 8, !tbaa !90
  %72 = udiv i64 %71, 8
  %73 = icmp ult i64 %72, 128
  br i1 %73, label %74, label %85

74:                                               ; preds = %68
  %75 = load i64, ptr %13, align 8, !tbaa !90
  %76 = urem i64 %75, 64
  %77 = shl i64 1, %76
  %78 = getelementptr inbounds nuw %struct.cpu_set_t, ptr %4, i32 0, i32 0
  %79 = getelementptr inbounds [16 x i64], ptr %78, i64 0, i64 0
  %80 = load i64, ptr %13, align 8, !tbaa !90
  %81 = udiv i64 %80, 64
  %82 = getelementptr inbounds nuw i64, ptr %79, i64 %81
  %83 = load i64, ptr %82, align 8, !tbaa !90
  %84 = or i64 %83, %77
  store i64 %84, ptr %82, align 8, !tbaa !90
  br label %86

85:                                               ; preds = %68
  br label %86

86:                                               ; preds = %85, %74
  %87 = phi i64 [ %84, %74 ], [ 0, %85 ]
  store i64 %87, ptr %14, align 8, !tbaa !90
  call void @llvm.lifetime.end.p0(i64 8, ptr %13) #12
  br label %123

88:                                               ; preds = %58
  %89 = load ptr, ptr %6, align 8, !tbaa !27
  %90 = getelementptr inbounds nuw i8, ptr %89, i32 1
  store ptr %90, ptr %6, align 8, !tbaa !27
  %91 = load ptr, ptr %6, align 8, !tbaa !27
  %92 = call i64 @strtoul(ptr noundef %91, ptr noundef null, i32 noundef 10) #12
  %93 = trunc i64 %92 to i32
  store i32 %93, ptr %10, align 4, !tbaa !31
  %94 = load i32, ptr %9, align 4, !tbaa !31
  store i32 %94, ptr %7, align 4, !tbaa !31
  br label %95

95:                                               ; preds = %119, %88
  %96 = load i32, ptr %7, align 4, !tbaa !31
  %97 = load i32, ptr %10, align 4, !tbaa !31
  %98 = icmp slt i32 %96, %97
  br i1 %98, label %99, label %122

99:                                               ; preds = %95
  call void @llvm.lifetime.start.p0(i64 8, ptr %15) #12
  %100 = load i32, ptr %7, align 4, !tbaa !31
  %101 = sext i32 %100 to i64
  store i64 %101, ptr %15, align 8, !tbaa !90
  %102 = load i64, ptr %15, align 8, !tbaa !90
  %103 = udiv i64 %102, 8
  %104 = icmp ult i64 %103, 128
  br i1 %104, label %105, label %116

105:                                              ; preds = %99
  %106 = load i64, ptr %15, align 8, !tbaa !90
  %107 = urem i64 %106, 64
  %108 = shl i64 1, %107
  %109 = getelementptr inbounds nuw %struct.cpu_set_t, ptr %4, i32 0, i32 0
  %110 = getelementptr inbounds [16 x i64], ptr %109, i64 0, i64 0
  %111 = load i64, ptr %15, align 8, !tbaa !90
  %112 = udiv i64 %111, 64
  %113 = getelementptr inbounds nuw i64, ptr %110, i64 %112
  %114 = load i64, ptr %113, align 8, !tbaa !90
  %115 = or i64 %114, %108
  store i64 %115, ptr %113, align 8, !tbaa !90
  br label %117

116:                                              ; preds = %99
  br label %117

117:                                              ; preds = %116, %105
  %118 = phi i64 [ %115, %105 ], [ 0, %116 ]
  store i64 %118, ptr %16, align 8, !tbaa !90
  call void @llvm.lifetime.end.p0(i64 8, ptr %15) #12
  br label %119

119:                                              ; preds = %117
  %120 = load i32, ptr %7, align 4, !tbaa !31
  %121 = add nsw i32 %120, 1
  store i32 %121, ptr %7, align 4, !tbaa !31
  br label %95, !llvm.loop !91

122:                                              ; preds = %95
  br label %123

123:                                              ; preds = %122, %86
  br label %124

124:                                              ; preds = %123
  %125 = load i32, ptr %8, align 4, !tbaa !31
  %126 = add nsw i32 %125, 1
  store i32 %126, ptr %8, align 4, !tbaa !31
  br label %51, !llvm.loop !92

127:                                              ; preds = %51
  %128 = load ptr, ptr %3, align 8, !tbaa !3
  %129 = getelementptr inbounds nuw %struct.pmix_progress_tracker_t, ptr %128, i32 0, i32 7
  %130 = getelementptr inbounds nuw %struct.pmix_thread_t, ptr %129, i32 0, i32 3
  %131 = load i64, ptr %130, align 8, !tbaa !93
  %132 = call i32 @pthread_setaffinity_np(i64 noundef %131, i64 noundef 128, ptr noundef %4) #12
  store i32 %132, ptr %11, align 4, !tbaa !31
  %133 = load i32, ptr %11, align 4, !tbaa !31
  %134 = icmp ne i32 0, %133
  br i1 %134, label %135, label %150

135:                                              ; preds = %127
  %136 = load i8, ptr @pmix_bind_progress_thread_reqd, align 1, !tbaa !28, !range !29, !noundef !30
  %137 = trunc i8 %136 to i1
  br i1 %137, label %138, label %150

138:                                              ; preds = %135
  %139 = load ptr, ptr %3, align 8, !tbaa !3
  %140 = getelementptr inbounds nuw %struct.pmix_progress_tracker_t, ptr %139, i32 0, i32 2
  %141 = load ptr, ptr %140, align 8, !tbaa !38
  %142 = icmp eq ptr null, %141
  br i1 %142, label %143, label %144

143:                                              ; preds = %138
  br label %148

144:                                              ; preds = %138
  %145 = load ptr, ptr %3, align 8, !tbaa !3
  %146 = getelementptr inbounds nuw %struct.pmix_progress_tracker_t, ptr %145, i32 0, i32 2
  %147 = load ptr, ptr %146, align 8, !tbaa !38
  br label %148

148:                                              ; preds = %144, %143
  %149 = phi ptr [ @.str.6, %143 ], [ %147, %144 ]
  call void (i32, ptr, ...) @pmix_output(i32 noundef 0, ptr noundef @.str.5, ptr noundef %149)
  store i32 -47, ptr %11, align 4, !tbaa !31
  br label %151

150:                                              ; preds = %135, %127
  store i32 0, ptr %11, align 4, !tbaa !31
  br label %151

151:                                              ; preds = %150, %148
  %152 = load ptr, ptr %5, align 8, !tbaa !88
  call void @PMIx_Argv_free(ptr noundef %152)
  br label %153

153:                                              ; preds = %151, %42
  %154 = load i32, ptr %11, align 4, !tbaa !31
  store i32 %154, ptr %2, align 4
  store i32 1, ptr %12, align 4
  br label %155

155:                                              ; preds = %153, %40
  call void @llvm.lifetime.end.p0(i64 4, ptr %11) #12
  call void @llvm.lifetime.end.p0(i64 4, ptr %10) #12
  call void @llvm.lifetime.end.p0(i64 4, ptr %9) #12
  call void @llvm.lifetime.end.p0(i64 4, ptr %8) #12
  call void @llvm.lifetime.end.p0(i64 4, ptr %7) #12
  call void @llvm.lifetime.end.p0(i64 8, ptr %6) #12
  call void @llvm.lifetime.end.p0(i64 8, ptr %5) #12
  call void @llvm.lifetime.end.p0(i64 128, ptr %4) #12
  %156 = load i32, ptr %2, align 4
  ret i32 %156
}