; Function Attrs: nounwind uwtable
define internal fastcc noundef i32 @start_progress_engine(ptr noundef %0) unnamed_addr #0 {
  %2 = alloca %struct.cpu_set_t, align 8
  %3 = alloca ptr, align 8
  call void @llvm.lifetime.start.p0(i64 128, ptr nonnull %2) #14
  call void @llvm.lifetime.start.p0(i64 8, ptr nonnull %3) #14
  %4 = getelementptr inbounds nuw i8, ptr %0, i64 168
  store volatile i8 1, ptr %4, align 8, !tbaa !63
  %5 = getelementptr inbounds nuw i8, ptr %0, i64 312
  %6 = getelementptr inbounds nuw i8, ptr %0, i64 432
  store ptr @progress_engine, ptr %6, align 8, !tbaa !65
  %7 = getelementptr inbounds nuw i8, ptr %0, i64 440
  store ptr %0, ptr %7, align 8, !tbaa !66
  %8 = tail call i32 @pmix_thread_start(ptr noundef nonnull %5) #14
  switch i32 %8, label %9 [
    i32 0, label %11
    i32 -2, label %60
  ]

9:                                                ; preds = %1
  %10 = tail call ptr @PMIx_Error_string(i32 noundef %8) #14
  tail call void (i32, ptr, ...) @pmix_output(i32 noundef 0, ptr noundef nonnull @.str, ptr noundef %10, ptr noundef nonnull @.str.1, i32 noundef 151) #14
  br label %60

11:                                               ; preds = %1
  %12 = load ptr, ptr @pmix_progress_thread_cpus, align 8, !tbaa !67
  %.not39 = icmp eq ptr %12, null
  br i1 %.not39, label %60, label %13

13:                                               ; preds = %11
  call void @llvm.memset.p0.i64(ptr noundef nonnull align 8 dereferenceable(128) %2, i8 0, i64 128, i1 false)
  %14 = tail call ptr @PMIx_Argv_split(ptr noundef nonnull %12, i32 noundef 44) #14
  %15 = load ptr, ptr %14, align 8, !tbaa !67
  %.not4044 = icmp eq ptr %15, null
  br i1 %.not4044, label %._crit_edge, label %.lr.ph46

.lr.ph46:                                         ; preds = %13, %.loopexit
  %indvars.iv = phi i64 [ %indvars.iv.next, %.loopexit ], [ 0, %13 ]
  %16 = phi ptr [ %48, %.loopexit ], [ %15, %13 ]
  %17 = call i64 @strtoul(ptr noundef nonnull %16, ptr noundef nonnull %3, i32 noundef 10) #14
  %18 = load ptr, ptr %3, align 8, !tbaa !67
  %19 = icmp eq ptr %18, null
  br i1 %19, label %20, label %30

20:                                               ; preds = %.lr.ph46
  %sext = shl i64 %17, 32
  %21 = ashr exact i64 %sext, 32
  %22 = icmp ult i64 %21, 1024
  br i1 %22, label %23, label %.loopexit

23:                                               ; preds = %20
  %24 = and i64 %17, 63
  %25 = shl nuw i64 1, %24
  %26 = lshr i64 %21, 6
  %27 = getelementptr inbounds nuw i64, ptr %2, i64 %26
  %28 = load i64, ptr %27, align 8, !tbaa !68
  %29 = or i64 %28, %25
  store i64 %29, ptr %27, align 8, !tbaa !68
  br label %.loopexit

30:                                               ; preds = %.lr.ph46
  %31 = trunc i64 %17 to i32
  %32 = getelementptr inbounds nuw i8, ptr %18, i64 1
  store ptr %32, ptr %3, align 8, !tbaa !67
  %33 = tail call i64 @strtoul(ptr noundef nonnull captures(none) %32, ptr noundef null, i32 noundef 10) #14
  %34 = trunc i64 %33 to i32
  %35 = icmp slt i32 %31, %34
  br i1 %35, label %.lr.ph, label %.loopexit

.lr.ph:                                           ; preds = %30, %45
  %.03243 = phi i32 [ %46, %45 ], [ %31, %30 ]
  %36 = icmp ult i32 %.03243, 1024
  br i1 %36, label %37, label %45

37:                                               ; preds = %.lr.ph
  %38 = zext nneg i32 %.03243 to i64
  %39 = and i64 %38, 63
  %40 = shl nuw i64 1, %39
  %41 = lshr i64 %38, 6
  %42 = getelementptr inbounds nuw i64, ptr %2, i64 %41
  %43 = load i64, ptr %42, align 8, !tbaa !68
  %44 = or i64 %43, %40
  store i64 %44, ptr %42, align 8, !tbaa !68
  br label %45

45:                                               ; preds = %.lr.ph, %37
  %46 = add nsw i32 %.03243, 1
  %exitcond.not = icmp eq i32 %46, %34
  br i1 %exitcond.not, label %.loopexit, label %.lr.ph, !llvm.loop !69

.loopexit:                                        ; preds = %45, %30, %23, %20
  %indvars.iv.next = add nuw nsw i64 %indvars.iv, 1
  %47 = getelementptr inbounds nuw ptr, ptr %14, i64 %indvars.iv.next
  %48 = load ptr, ptr %47, align 8, !tbaa !67
  %.not40 = icmp eq ptr %48, null
  br i1 %.not40, label %._crit_edge, label %.lr.ph46, !llvm.loop !70

._crit_edge:                                      ; preds = %.loopexit, %13
  %49 = getelementptr inbounds nuw i8, ptr %0, i64 448
  %50 = load i64, ptr %49, align 8, !tbaa !71
  %51 = call i32 @pthread_setaffinity_np(i64 noundef %50, i64 noundef 128, ptr noundef nonnull %2) #14
  %.not41 = icmp eq i32 %51, 0
  br i1 %.not41, label %59, label %52

52:                                               ; preds = %._crit_edge
  %53 = load i8, ptr @pmix_bind_progress_thread_reqd, align 1, !tbaa !72, !range !61, !noundef !62
  %54 = trunc nuw i8 %53 to i1
  br i1 %54, label %55, label %59

55:                                               ; preds = %52
  %56 = getelementptr inbounds nuw i8, ptr %0, i64 152
  %57 = load ptr, ptr %56, align 8, !tbaa !36
  %58 = icmp eq ptr %57, null
  %spec.select = select i1 %58, ptr @.str.6, ptr %57
  call void (i32, ptr, ...) @pmix_output(i32 noundef 0, ptr noundef nonnull @.str.5, ptr noundef nonnull %spec.select) #14
  br label %59

59:                                               ; preds = %._crit_edge, %52, %55
  %.1 = phi i32 [ -47, %55 ], [ 0, %52 ], [ 0, %._crit_edge ]
  call void @PMIx_Argv_free(ptr noundef nonnull %14) #14
  br label %60

60:                                               ; preds = %11, %59, %9, %1
  %.0 = phi i32 [ %8, %1 ], [ %8, %9 ], [ %.1, %59 ], [ 0, %11 ]
  call void @llvm.lifetime.end.p0(i64 8, ptr nonnull %3) #14
  call void @llvm.lifetime.end.p0(i64 128, ptr nonnull %2) #14
  ret i32 %.0
}